target datalayout = "e-m:e-p270:32:32-p271:32:32-p272:64:64-i64:64-i128:128-f80:128-n8:16:32:64-S128"
target triple = "x86_64-pc-linux-gnu"

%struct.iovec = type { ptr, i64 }

; Function Attrs: nounwind uwtable
define i32 @compute_remaining_iovec(ptr noundef %0, ptr noundef %1, i32 noundef %2, i64 noundef %3) #0 {
  %5 = alloca i32, align 4
  %6 = alloca ptr, align 8
  %7 = alloca ptr, align 8
  %8 = alloca i32, align 4
  %9 = alloca i64, align 8
  store ptr %0, ptr %6, align 8
  store ptr %1, ptr %7, align 8
  store i32 %2, ptr %8, align 4
  store i64 %3, ptr %9, align 8
  br label %10

10:                                               ; preds = %29, %4
  %11 = load ptr, ptr %7, align 8
  %12 = getelementptr inbounds nuw %struct.iovec, ptr %11, i32 0, i32 1
  %13 = load i64, ptr %12, align 8
  %14 = load i64, ptr %9, align 8
  %15 = icmp ule i64 %13, %14
  br i1 %15, label %16, label %30

16:                                               ; preds = %10
  %17 = load ptr, ptr %7, align 8
  %18 = getelementptr inbounds nuw %struct.iovec, ptr %17, i32 0, i32 1
  %19 = load i64, ptr %18, align 8
  %20 = load i64, ptr %9, align 8
  %21 = sub i64 %20, %19
  store i64 %21, ptr %9, align 8
  %22 = load ptr, ptr %7, align 8
  %23 = getelementptr inbounds nuw %struct.iovec, ptr %22, i32 1
  store ptr %23, ptr %7, align 8
  %24 = load i32, ptr %8, align 4
  %25 = add i32 %24, -1
  store i32 %25, ptr %8, align 4
  %26 = load i32, ptr %8, align 4
  %27 = icmp eq i32 %26, 0
  br i1 %27, label %28, label %29

28:                                               ; preds = %16
  store i32 0, ptr %5, align 4
  br label %54

29:                                               ; preds = %16
  br label %10, !llvm.loop !8

30:                                               ; preds = %10
  %31 = load ptr, ptr %7, align 8
  %32 = load ptr, ptr %6, align 8
  %33 = icmp ne ptr %31, %32
  br i1 %33, label %34, label %40

34:                                               ; preds = %30
  %35 = load ptr, ptr %6, align 8
  %36 = load ptr, ptr %7, align 8
  %37 = load i32, ptr %8, align 4
  %38 = sext i32 %37 to i64
  %39 = mul i64 16, %38
  call void @llvm.memmove.p0.p0.i64(ptr align 8 %35, ptr align 8 %36, i64 %39, i1 false)
  br label %40

40:                                               ; preds = %34, %30
  %41 = load ptr, ptr %6, align 8
  %42 = getelementptr inbounds nuw %struct.iovec, ptr %41, i32 0, i32 0
  %43 = load ptr, ptr %42, align 8
  %44 = load i64, ptr %9, align 8
  %45 = getelementptr inbounds nuw i8, ptr %43, i64 %44
  %46 = load ptr, ptr %6, align 8
  %47 = getelementptr inbounds nuw %struct.iovec, ptr %46, i32 0, i32 0
  store ptr %45, ptr %47, align 8
  %48 = load i64, ptr %9, align 8
  %49 = load ptr, ptr %6, align 8
  %50 = getelementptr inbounds nuw %struct.iovec, ptr %49, i32 0, i32 1
  %51 = load i64, ptr %50, align 8
  %52 = sub i64 %51, %48
  store i64 %52, ptr %50, align 8
  %53 = load i32, ptr %8, align 4
  store i32 %53, ptr %5, align 4
  br label %54

54:                                               ; preds = %40, %28
  %55 = load i32, ptr %5, align 4
  ret i32 %55
}