; Function Attrs: nofree norecurse nosync nounwind memory(argmem: readwrite) uwtable
define i32 @compute_remaining_iovec(ptr noundef captures(address) %0, ptr noundef readonly captures(address) %1, i32 noundef %2, i64 noundef %3) local_unnamed_addr #7 {
  br label %5

5:                                                ; preds = %8, %4
  %.019 = phi ptr [ %1, %4 ], [ %10, %8 ]
  %.018 = phi i32 [ %2, %4 ], [ %11, %8 ]
  %.0 = phi i64 [ %3, %4 ], [ %9, %8 ]
  %6 = getelementptr inbounds nuw i8, ptr %.019, i64 8
  %7 = load i64, ptr %6, align 8
  %.not = icmp ugt i64 %7, %.0
  br i1 %.not, label %13, label %8

8:                                                ; preds = %5
  %9 = sub nuw i64 %.0, %7
  %10 = getelementptr inbounds nuw i8, ptr %.019, i64 16
  %11 = add i32 %.018, -1
  %12 = icmp eq i32 %11, 0
  br i1 %12, label %.loopexit, label %5, !llvm.loop !7

13:                                               ; preds = %5
  %.not24 = icmp eq ptr %.019, %0
  br i1 %.not24, label %17, label %14

14:                                               ; preds = %13
  %15 = sext i32 %.018 to i64
  %16 = shl nsw i64 %15, 4
  tail call void @llvm.memmove.p0.p0.i64(ptr align 8 %0, ptr nonnull align 8 %.019, i64 %16, i1 false)
  br label %17

17:                                               ; preds = %14, %13
  %18 = load ptr, ptr %0, align 8
  %19 = getelementptr inbounds nuw i8, ptr %18, i64 %.0
  store ptr %19, ptr %0, align 8
  %20 = getelementptr inbounds nuw i8, ptr %0, i64 8
  %21 = load i64, ptr %20, align 8
  %22 = sub i64 %21, %.0
  store i64 %22, ptr %20, align 8
  br label %.loopexit

.loopexit:                                        ; preds = %8, %17
  %.020 = phi i32 [ %.018, %17 ], [ 0, %8 ]
  ret i32 %.020
}